
;CodeVisionAVR C Compiler V2.04.4a Advanced
;(C) Copyright 1998-2009 Pavel Haiduc, HP InfoTech s.r.l.
;http://www.hpinfotech.com

;Chip type                : ATmega1280
;Program type             : Application
;Clock frequency          : 11.052000 MHz
;Memory model             : Small
;Optimize for             : Size
;(s)printf features       : int, width
;(s)scanf features        : int, width
;External RAM size        : 0
;Data Stack size          : 2048 byte(s)
;Heap size                : 0 byte(s)
;Promote 'char' to 'int'  : Yes
;'char' is unsigned       : Yes
;8 bit enums              : Yes
;global 'const' stored in FLASH: No
;Enhanced core instructions    : On
;Smart register allocation     : On
;Automatic register allocation : On

	#pragma AVRPART ADMIN PART_NAME ATmega1280
	#pragma AVRPART MEMORY PROG_FLASH 131072
	#pragma AVRPART MEMORY EEPROM 4096
	#pragma AVRPART MEMORY INT_SRAM SIZE 8192
	#pragma AVRPART MEMORY INT_SRAM START_ADDR 0x200

	.LISTMAC
	.EQU EERE=0x0
	.EQU EEWE=0x1
	.EQU EEMWE=0x2
	.EQU UDRE=0x5
	.EQU RXC=0x7
	.EQU EECR=0x1F
	.EQU EEDR=0x20
	.EQU EEARL=0x21
	.EQU EEARH=0x22
	.EQU SPSR=0x2D
	.EQU SPDR=0x2E
	.EQU SMCR=0x33
	.EQU MCUSR=0x34
	.EQU MCUCR=0x35
	.EQU WDTCSR=0x60
	.EQU UCSR0A=0xC0
	.EQU UDR0=0xC6
	.EQU RAMPZ=0x3B
	.EQU EIND=0x3C
	.EQU SPL=0x3D
	.EQU SPH=0x3E
	.EQU SREG=0x3F
	.EQU XMCRA=0x74
	.EQU XMCRB=0x75
	.EQU GPIOR0=0x1E

	.DEF R0X0=R0
	.DEF R0X1=R1
	.DEF R0X2=R2
	.DEF R0X3=R3
	.DEF R0X4=R4
	.DEF R0X5=R5
	.DEF R0X6=R6
	.DEF R0X7=R7
	.DEF R0X8=R8
	.DEF R0X9=R9
	.DEF R0XA=R10
	.DEF R0XB=R11
	.DEF R0XC=R12
	.DEF R0XD=R13
	.DEF R0XE=R14
	.DEF R0XF=R15
	.DEF R0X10=R16
	.DEF R0X11=R17
	.DEF R0X12=R18
	.DEF R0X13=R19
	.DEF R0X14=R20
	.DEF R0X15=R21
	.DEF R0X16=R22
	.DEF R0X17=R23
	.DEF R0X18=R24
	.DEF R0X19=R25
	.DEF R0X1A=R26
	.DEF R0X1B=R27
	.DEF R0X1C=R28
	.DEF R0X1D=R29
	.DEF R0X1E=R30
	.DEF R0X1F=R31

	.MACRO __CPD1N
	CPI  R30,LOW(@0)
	LDI  R26,HIGH(@0)
	CPC  R31,R26
	LDI  R26,BYTE3(@0)
	CPC  R22,R26
	LDI  R26,BYTE4(@0)
	CPC  R23,R26
	.ENDM

	.MACRO __CPD2N
	CPI  R26,LOW(@0)
	LDI  R30,HIGH(@0)
	CPC  R27,R30
	LDI  R30,BYTE3(@0)
	CPC  R24,R30
	LDI  R30,BYTE4(@0)
	CPC  R25,R30
	.ENDM

	.MACRO __CPWRR
	CP   R@0,R@2
	CPC  R@1,R@3
	.ENDM

	.MACRO __CPWRN
	CPI  R@0,LOW(@2)
	LDI  R30,HIGH(@2)
	CPC  R@1,R30
	.ENDM

	.MACRO __ADDB1MN
	SUBI R30,LOW(-@0-(@1))
	.ENDM

	.MACRO __ADDB2MN
	SUBI R26,LOW(-@0-(@1))
	.ENDM

	.MACRO __ADDW1MN
	SUBI R30,LOW(-@0-(@1))
	SBCI R31,HIGH(-@0-(@1))
	.ENDM

	.MACRO __ADDW2MN
	SUBI R26,LOW(-@0-(@1))
	SBCI R27,HIGH(-@0-(@1))
	.ENDM

	.MACRO __ADDW1FN
	SUBI R30,LOW(-2*@0-(@1))
	SBCI R31,HIGH(-2*@0-(@1))
	.ENDM

	.MACRO __ADDD1FN
	SUBI R30,LOW(-2*@0-(@1))
	SBCI R31,HIGH(-2*@0-(@1))
	SBCI R22,BYTE3(-2*@0-(@1))
	.ENDM

	.MACRO __ADDD1N
	SUBI R30,LOW(-@0)
	SBCI R31,HIGH(-@0)
	SBCI R22,BYTE3(-@0)
	SBCI R23,BYTE4(-@0)
	.ENDM

	.MACRO __ADDD2N
	SUBI R26,LOW(-@0)
	SBCI R27,HIGH(-@0)
	SBCI R24,BYTE3(-@0)
	SBCI R25,BYTE4(-@0)
	.ENDM

	.MACRO __SUBD1N
	SUBI R30,LOW(@0)
	SBCI R31,HIGH(@0)
	SBCI R22,BYTE3(@0)
	SBCI R23,BYTE4(@0)
	.ENDM

	.MACRO __SUBD2N
	SUBI R26,LOW(@0)
	SBCI R27,HIGH(@0)
	SBCI R24,BYTE3(@0)
	SBCI R25,BYTE4(@0)
	.ENDM

	.MACRO __ANDBMNN
	LDS  R30,@0+(@1)
	ANDI R30,LOW(@2)
	STS  @0+(@1),R30
	.ENDM

	.MACRO __ANDWMNN
	LDS  R30,@0+(@1)
	ANDI R30,LOW(@2)
	STS  @0+(@1),R30
	LDS  R30,@0+(@1)+1
	ANDI R30,HIGH(@2)
	STS  @0+(@1)+1,R30
	.ENDM

	.MACRO __ANDD1N
	ANDI R30,LOW(@0)
	ANDI R31,HIGH(@0)
	ANDI R22,BYTE3(@0)
	ANDI R23,BYTE4(@0)
	.ENDM

	.MACRO __ANDD2N
	ANDI R26,LOW(@0)
	ANDI R27,HIGH(@0)
	ANDI R24,BYTE3(@0)
	ANDI R25,BYTE4(@0)
	.ENDM

	.MACRO __ORBMNN
	LDS  R30,@0+(@1)
	ORI  R30,LOW(@2)
	STS  @0+(@1),R30
	.ENDM

	.MACRO __ORWMNN
	LDS  R30,@0+(@1)
	ORI  R30,LOW(@2)
	STS  @0+(@1),R30
	LDS  R30,@0+(@1)+1
	ORI  R30,HIGH(@2)
	STS  @0+(@1)+1,R30
	.ENDM

	.MACRO __ORD1N
	ORI  R30,LOW(@0)
	ORI  R31,HIGH(@0)
	ORI  R22,BYTE3(@0)
	ORI  R23,BYTE4(@0)
	.ENDM

	.MACRO __ORD2N
	ORI  R26,LOW(@0)
	ORI  R27,HIGH(@0)
	ORI  R24,BYTE3(@0)
	ORI  R25,BYTE4(@0)
	.ENDM

	.MACRO __DELAY_USB
	LDI  R24,LOW(@0)
__DELAY_USB_LOOP:
	DEC  R24
	BRNE __DELAY_USB_LOOP
	.ENDM

	.MACRO __DELAY_USW
	LDI  R24,LOW(@0)
	LDI  R25,HIGH(@0)
__DELAY_USW_LOOP:
	SBIW R24,1
	BRNE __DELAY_USW_LOOP
	.ENDM

	.MACRO __GETD1S
	LDD  R30,Y+@0
	LDD  R31,Y+@0+1
	LDD  R22,Y+@0+2
	LDD  R23,Y+@0+3
	.ENDM

	.MACRO __GETD2S
	LDD  R26,Y+@0
	LDD  R27,Y+@0+1
	LDD  R24,Y+@0+2
	LDD  R25,Y+@0+3
	.ENDM

	.MACRO __PUTD1S
	STD  Y+@0,R30
	STD  Y+@0+1,R31
	STD  Y+@0+2,R22
	STD  Y+@0+3,R23
	.ENDM

	.MACRO __PUTD2S
	STD  Y+@0,R26
	STD  Y+@0+1,R27
	STD  Y+@0+2,R24
	STD  Y+@0+3,R25
	.ENDM

	.MACRO __PUTDZ2
	STD  Z+@0,R26
	STD  Z+@0+1,R27
	STD  Z+@0+2,R24
	STD  Z+@0+3,R25
	.ENDM

	.MACRO __CLRD1S
	STD  Y+@0,R30
	STD  Y+@0+1,R30
	STD  Y+@0+2,R30
	STD  Y+@0+3,R30
	.ENDM

	.MACRO __POINTB1MN
	LDI  R30,LOW(@0+(@1))
	.ENDM

	.MACRO __POINTW1MN
	LDI  R30,LOW(@0+(@1))
	LDI  R31,HIGH(@0+(@1))
	.ENDM

	.MACRO __POINTD1M
	LDI  R30,LOW(@0)
	LDI  R31,HIGH(@0)
	LDI  R22,BYTE3(@0)
	LDI  R23,BYTE4(@0)
	.ENDM

	.MACRO __POINTW1FN
	LDI  R30,LOW(2*@0+(@1))
	LDI  R31,HIGH(2*@0+(@1))
	.ENDM

	.MACRO __POINTD1FN
	LDI  R30,LOW(2*@0+(@1))
	LDI  R31,HIGH(2*@0+(@1))
	LDI  R22,BYTE3(2*@0+(@1))
	LDI  R23,BYTE4(2*@0+(@1))
	.ENDM

	.MACRO __POINTB2MN
	LDI  R26,LOW(@0+(@1))
	.ENDM

	.MACRO __POINTW2MN
	LDI  R26,LOW(@0+(@1))
	LDI  R27,HIGH(@0+(@1))
	.ENDM

	.MACRO __POINTBRM
	LDI  R@0,LOW(@1)
	.ENDM

	.MACRO __POINTWRM
	LDI  R@0,LOW(@2)
	LDI  R@1,HIGH(@2)
	.ENDM

	.MACRO __POINTBRMN
	LDI  R@0,LOW(@1+(@2))
	.ENDM

	.MACRO __POINTWRMN
	LDI  R@0,LOW(@2+(@3))
	LDI  R@1,HIGH(@2+(@3))
	.ENDM

	.MACRO __POINTWRFN
	LDI  R@0,LOW(@2*2+(@3))
	LDI  R@1,HIGH(@2*2+(@3))
	.ENDM

	.MACRO __GETD1N
	LDI  R30,LOW(@0)
	LDI  R31,HIGH(@0)
	LDI  R22,BYTE3(@0)
	LDI  R23,BYTE4(@0)
	.ENDM

	.MACRO __GETD2N
	LDI  R26,LOW(@0)
	LDI  R27,HIGH(@0)
	LDI  R24,BYTE3(@0)
	LDI  R25,BYTE4(@0)
	.ENDM

	.MACRO __GETB1MN
	LDS  R30,@0+(@1)
	.ENDM

	.MACRO __GETB1HMN
	LDS  R31,@0+(@1)
	.ENDM

	.MACRO __GETW1MN
	LDS  R30,@0+(@1)
	LDS  R31,@0+(@1)+1
	.ENDM

	.MACRO __GETD1MN
	LDS  R30,@0+(@1)
	LDS  R31,@0+(@1)+1
	LDS  R22,@0+(@1)+2
	LDS  R23,@0+(@1)+3
	.ENDM

	.MACRO __GETBRMN
	LDS  R@0,@1+(@2)
	.ENDM

	.MACRO __GETWRMN
	LDS  R@0,@2+(@3)
	LDS  R@1,@2+(@3)+1
	.ENDM

	.MACRO __GETWRZ
	LDD  R@0,Z+@2
	LDD  R@1,Z+@2+1
	.ENDM

	.MACRO __GETD2Z
	LDD  R26,Z+@0
	LDD  R27,Z+@0+1
	LDD  R24,Z+@0+2
	LDD  R25,Z+@0+3
	.ENDM

	.MACRO __GETB2MN
	LDS  R26,@0+(@1)
	.ENDM

	.MACRO __GETW2MN
	LDS  R26,@0+(@1)
	LDS  R27,@0+(@1)+1
	.ENDM

	.MACRO __GETD2MN
	LDS  R26,@0+(@1)
	LDS  R27,@0+(@1)+1
	LDS  R24,@0+(@1)+2
	LDS  R25,@0+(@1)+3
	.ENDM

	.MACRO __PUTB1MN
	STS  @0+(@1),R30
	.ENDM

	.MACRO __PUTW1MN
	STS  @0+(@1),R30
	STS  @0+(@1)+1,R31
	.ENDM

	.MACRO __PUTD1MN
	STS  @0+(@1),R30
	STS  @0+(@1)+1,R31
	STS  @0+(@1)+2,R22
	STS  @0+(@1)+3,R23
	.ENDM

	.MACRO __PUTB1EN
	LDI  R26,LOW(@0+(@1))
	LDI  R27,HIGH(@0+(@1))
	CALL __EEPROMWRB
	.ENDM

	.MACRO __PUTW1EN
	LDI  R26,LOW(@0+(@1))
	LDI  R27,HIGH(@0+(@1))
	CALL __EEPROMWRW
	.ENDM

	.MACRO __PUTD1EN
	LDI  R26,LOW(@0+(@1))
	LDI  R27,HIGH(@0+(@1))
	CALL __EEPROMWRD
	.ENDM

	.MACRO __PUTBR0MN
	STS  @0+(@1),R0
	.ENDM

	.MACRO __PUTBMRN
	STS  @0+(@1),R@2
	.ENDM

	.MACRO __PUTWMRN
	STS  @0+(@1),R@2
	STS  @0+(@1)+1,R@3
	.ENDM

	.MACRO __PUTBZR
	STD  Z+@1,R@0
	.ENDM

	.MACRO __PUTWZR
	STD  Z+@2,R@0
	STD  Z+@2+1,R@1
	.ENDM

	.MACRO __GETW1R
	MOV  R30,R@0
	MOV  R31,R@1
	.ENDM

	.MACRO __GETW2R
	MOV  R26,R@0
	MOV  R27,R@1
	.ENDM

	.MACRO __GETWRN
	LDI  R@0,LOW(@2)
	LDI  R@1,HIGH(@2)
	.ENDM

	.MACRO __PUTW1R
	MOV  R@0,R30
	MOV  R@1,R31
	.ENDM

	.MACRO __PUTW2R
	MOV  R@0,R26
	MOV  R@1,R27
	.ENDM

	.MACRO __ADDWRN
	SUBI R@0,LOW(-@2)
	SBCI R@1,HIGH(-@2)
	.ENDM

	.MACRO __ADDWRR
	ADD  R@0,R@2
	ADC  R@1,R@3
	.ENDM

	.MACRO __SUBWRN
	SUBI R@0,LOW(@2)
	SBCI R@1,HIGH(@2)
	.ENDM

	.MACRO __SUBWRR
	SUB  R@0,R@2
	SBC  R@1,R@3
	.ENDM

	.MACRO __ANDWRN
	ANDI R@0,LOW(@2)
	ANDI R@1,HIGH(@2)
	.ENDM

	.MACRO __ANDWRR
	AND  R@0,R@2
	AND  R@1,R@3
	.ENDM

	.MACRO __ORWRN
	ORI  R@0,LOW(@2)
	ORI  R@1,HIGH(@2)
	.ENDM

	.MACRO __ORWRR
	OR   R@0,R@2
	OR   R@1,R@3
	.ENDM

	.MACRO __EORWRR
	EOR  R@0,R@2
	EOR  R@1,R@3
	.ENDM

	.MACRO __GETWRS
	LDD  R@0,Y+@2
	LDD  R@1,Y+@2+1
	.ENDM

	.MACRO __PUTBSR
	STD  Y+@1,R@0
	.ENDM

	.MACRO __PUTWSR
	STD  Y+@2,R@0
	STD  Y+@2+1,R@1
	.ENDM

	.MACRO __MOVEWRR
	MOV  R@0,R@2
	MOV  R@1,R@3
	.ENDM

	.MACRO __INWR
	IN   R@0,@2
	IN   R@1,@2+1
	.ENDM

	.MACRO __OUTWR
	OUT  @2+1,R@1
	OUT  @2,R@0
	.ENDM

	.MACRO __CALL1MN
	LDS  R30,@0+(@1)
	LDS  R31,@0+(@1)+1
	ICALL
	.ENDM

	.MACRO __CALL1FN
	LDI  R30,LOW(2*@0+(@1))
	LDI  R31,HIGH(2*@0+(@1))
	CALL __GETW1PF
	ICALL
	.ENDM

	.MACRO __CALL2EN
	LDI  R26,LOW(@0+(@1))
	LDI  R27,HIGH(@0+(@1))
	CALL __EEPROMRDW
	ICALL
	.ENDM

	.MACRO __GETW1STACK
	IN   R26,SPL
	IN   R27,SPH
	ADIW R26,@0+1
	LD   R30,X+
	LD   R31,X
	.ENDM

	.MACRO __GETD1STACK
	IN   R26,SPL
	IN   R27,SPH
	ADIW R26,@0+1
	LD   R30,X+
	LD   R31,X+
	LD   R22,X
	.ENDM

	.MACRO __NBST
	BST  R@0,@1
	IN   R30,SREG
	LDI  R31,0x40
	EOR  R30,R31
	OUT  SREG,R30
	.ENDM


	.MACRO __PUTB1SN
	LDD  R26,Y+@0
	LDD  R27,Y+@0+1
	SUBI R26,LOW(-@1)
	SBCI R27,HIGH(-@1)
	ST   X,R30
	.ENDM

	.MACRO __PUTW1SN
	LDD  R26,Y+@0
	LDD  R27,Y+@0+1
	SUBI R26,LOW(-@1)
	SBCI R27,HIGH(-@1)
	ST   X+,R30
	ST   X,R31
	.ENDM

	.MACRO __PUTD1SN
	LDD  R26,Y+@0
	LDD  R27,Y+@0+1
	SUBI R26,LOW(-@1)
	SBCI R27,HIGH(-@1)
	CALL __PUTDP1
	.ENDM

	.MACRO __PUTB1SNS
	LDD  R26,Y+@0
	LDD  R27,Y+@0+1
	ADIW R26,@1
	ST   X,R30
	.ENDM

	.MACRO __PUTW1SNS
	LDD  R26,Y+@0
	LDD  R27,Y+@0+1
	ADIW R26,@1
	ST   X+,R30
	ST   X,R31
	.ENDM

	.MACRO __PUTD1SNS
	LDD  R26,Y+@0
	LDD  R27,Y+@0+1
	ADIW R26,@1
	CALL __PUTDP1
	.ENDM

	.MACRO __PUTB1PMN
	LDS  R26,@0
	LDS  R27,@0+1
	SUBI R26,LOW(-@1)
	SBCI R27,HIGH(-@1)
	ST   X,R30
	.ENDM

	.MACRO __PUTW1PMN
	LDS  R26,@0
	LDS  R27,@0+1
	SUBI R26,LOW(-@1)
	SBCI R27,HIGH(-@1)
	ST   X+,R30
	ST   X,R31
	.ENDM

	.MACRO __PUTD1PMN
	LDS  R26,@0
	LDS  R27,@0+1
	SUBI R26,LOW(-@1)
	SBCI R27,HIGH(-@1)
	CALL __PUTDP1
	.ENDM

	.MACRO __PUTB1PMNS
	LDS  R26,@0
	LDS  R27,@0+1
	ADIW R26,@1
	ST   X,R30
	.ENDM

	.MACRO __PUTW1PMNS
	LDS  R26,@0
	LDS  R27,@0+1
	ADIW R26,@1
	ST   X+,R30
	ST   X,R31
	.ENDM

	.MACRO __PUTD1PMNS
	LDS  R26,@0
	LDS  R27,@0+1
	ADIW R26,@1
	CALL __PUTDP1
	.ENDM

	.MACRO __PUTB1RN
	MOVW R26,R@0
	SUBI R26,LOW(-@1)
	SBCI R27,HIGH(-@1)
	ST   X,R30
	.ENDM

	.MACRO __PUTW1RN
	MOVW R26,R@0
	SUBI R26,LOW(-@1)
	SBCI R27,HIGH(-@1)
	ST   X+,R30
	ST   X,R31
	.ENDM

	.MACRO __PUTD1RN
	MOVW R26,R@0
	SUBI R26,LOW(-@1)
	SBCI R27,HIGH(-@1)
	CALL __PUTDP1
	.ENDM

	.MACRO __PUTB1RNS
	MOVW R26,R@0
	ADIW R26,@1
	ST   X,R30
	.ENDM

	.MACRO __PUTW1RNS
	MOVW R26,R@0
	ADIW R26,@1
	ST   X+,R30
	ST   X,R31
	.ENDM

	.MACRO __PUTD1RNS
	MOVW R26,R@0
	ADIW R26,@1
	CALL __PUTDP1
	.ENDM

	.MACRO __PUTB1RON
	MOV  R26,R@0
	MOV  R27,R@1
	SUBI R26,LOW(-@2)
	SBCI R27,HIGH(-@2)
	ST   X,R30
	.ENDM

	.MACRO __PUTW1RON
	MOV  R26,R@0
	MOV  R27,R@1
	SUBI R26,LOW(-@2)
	SBCI R27,HIGH(-@2)
	ST   X+,R30
	ST   X,R31
	.ENDM

	.MACRO __PUTD1RON
	MOV  R26,R@0
	MOV  R27,R@1
	SUBI R26,LOW(-@2)
	SBCI R27,HIGH(-@2)
	CALL __PUTDP1
	.ENDM

	.MACRO __PUTB1RONS
	MOV  R26,R@0
	MOV  R27,R@1
	ADIW R26,@2
	ST   X,R30
	.ENDM

	.MACRO __PUTW1RONS
	MOV  R26,R@0
	MOV  R27,R@1
	ADIW R26,@2
	ST   X+,R30
	ST   X,R31
	.ENDM

	.MACRO __PUTD1RONS
	MOV  R26,R@0
	MOV  R27,R@1
	ADIW R26,@2
	CALL __PUTDP1
	.ENDM


	.MACRO __GETB1SX
	MOVW R30,R28
	SUBI R30,LOW(-@0)
	SBCI R31,HIGH(-@0)
	LD   R30,Z
	.ENDM

	.MACRO __GETB1HSX
	MOVW R30,R28
	SUBI R30,LOW(-@0)
	SBCI R31,HIGH(-@0)
	LD   R31,Z
	.ENDM

	.MACRO __GETW1SX
	MOVW R30,R28
	SUBI R30,LOW(-@0)
	SBCI R31,HIGH(-@0)
	LD   R0,Z+
	LD   R31,Z
	MOV  R30,R0
	.ENDM

	.MACRO __GETD1SX
	MOVW R30,R28
	SUBI R30,LOW(-@0)
	SBCI R31,HIGH(-@0)
	LD   R0,Z+
	LD   R1,Z+
	LD   R22,Z+
	LD   R23,Z
	MOVW R30,R0
	.ENDM

	.MACRO __GETB2SX
	MOVW R26,R28
	SUBI R26,LOW(-@0)
	SBCI R27,HIGH(-@0)
	LD   R26,X
	.ENDM

	.MACRO __GETW2SX
	MOVW R26,R28
	SUBI R26,LOW(-@0)
	SBCI R27,HIGH(-@0)
	LD   R0,X+
	LD   R27,X
	MOV  R26,R0
	.ENDM

	.MACRO __GETD2SX
	MOVW R26,R28
	SUBI R26,LOW(-@0)
	SBCI R27,HIGH(-@0)
	LD   R0,X+
	LD   R1,X+
	LD   R24,X+
	LD   R25,X
	MOVW R26,R0
	.ENDM

	.MACRO __GETBRSX
	MOVW R30,R28
	SUBI R30,LOW(-@1)
	SBCI R31,HIGH(-@1)
	LD   R@0,Z
	.ENDM

	.MACRO __GETWRSX
	MOVW R30,R28
	SUBI R30,LOW(-@2)
	SBCI R31,HIGH(-@2)
	LD   R@0,Z+
	LD   R@1,Z
	.ENDM

	.MACRO __GETBRSX2
	MOVW R26,R28
	SUBI R26,LOW(-@1)
	SBCI R27,HIGH(-@1)
	LD   R@0,X
	.ENDM

	.MACRO __GETWRSX2
	MOVW R26,R28
	SUBI R26,LOW(-@2)
	SBCI R27,HIGH(-@2)
	LD   R@0,X+
	LD   R@1,X
	.ENDM

	.MACRO __LSLW8SX
	MOVW R30,R28
	SUBI R30,LOW(-@0)
	SBCI R31,HIGH(-@0)
	LD   R31,Z
	CLR  R30
	.ENDM

	.MACRO __PUTB1SX
	MOVW R26,R28
	SUBI R26,LOW(-@0)
	SBCI R27,HIGH(-@0)
	ST   X,R30
	.ENDM

	.MACRO __PUTW1SX
	MOVW R26,R28
	SUBI R26,LOW(-@0)
	SBCI R27,HIGH(-@0)
	ST   X+,R30
	ST   X,R31
	.ENDM

	.MACRO __PUTD1SX
	MOVW R26,R28
	SUBI R26,LOW(-@0)
	SBCI R27,HIGH(-@0)
	ST   X+,R30
	ST   X+,R31
	ST   X+,R22
	ST   X,R23
	.ENDM

	.MACRO __CLRW1SX
	MOVW R26,R28
	SUBI R26,LOW(-@0)
	SBCI R27,HIGH(-@0)
	ST   X+,R30
	ST   X,R30
	.ENDM

	.MACRO __CLRD1SX
	MOVW R26,R28
	SUBI R26,LOW(-@0)
	SBCI R27,HIGH(-@0)
	ST   X+,R30
	ST   X+,R30
	ST   X+,R30
	ST   X,R30
	.ENDM

	.MACRO __PUTB2SX
	MOVW R30,R28
	SUBI R30,LOW(-@0)
	SBCI R31,HIGH(-@0)
	ST   Z,R26
	.ENDM

	.MACRO __PUTW2SX
	MOVW R30,R28
	SUBI R30,LOW(-@0)
	SBCI R31,HIGH(-@0)
	ST   Z+,R26
	ST   Z,R27
	.ENDM

	.MACRO __PUTD2SX
	MOVW R30,R28
	SUBI R30,LOW(-@0)
	SBCI R31,HIGH(-@0)
	ST   Z+,R26
	ST   Z+,R27
	ST   Z+,R24
	ST   Z,R25
	.ENDM

	.MACRO __PUTBSRX
	MOVW R30,R28
	SUBI R30,LOW(-@1)
	SBCI R31,HIGH(-@1)
	ST   Z,R@0
	.ENDM

	.MACRO __PUTWSRX
	MOVW R30,R28
	SUBI R30,LOW(-@2)
	SBCI R31,HIGH(-@2)
	ST   Z+,R@0
	ST   Z,R@1
	.ENDM

	.MACRO __PUTB1SNX
	MOVW R26,R28
	SUBI R26,LOW(-@0)
	SBCI R27,HIGH(-@0)
	LD   R0,X+
	LD   R27,X
	MOV  R26,R0
	SUBI R26,LOW(-@1)
	SBCI R27,HIGH(-@1)
	ST   X,R30
	.ENDM

	.MACRO __PUTW1SNX
	MOVW R26,R28
	SUBI R26,LOW(-@0)
	SBCI R27,HIGH(-@0)
	LD   R0,X+
	LD   R27,X
	MOV  R26,R0
	SUBI R26,LOW(-@1)
	SBCI R27,HIGH(-@1)
	ST   X+,R30
	ST   X,R31
	.ENDM

	.MACRO __PUTD1SNX
	MOVW R26,R28
	SUBI R26,LOW(-@0)
	SBCI R27,HIGH(-@0)
	LD   R0,X+
	LD   R27,X
	MOV  R26,R0
	SUBI R26,LOW(-@1)
	SBCI R27,HIGH(-@1)
	ST   X+,R30
	ST   X+,R31
	ST   X+,R22
	ST   X,R23
	.ENDM

	.MACRO __MULBRR
	MULS R@0,R@1
	MOVW R30,R0
	.ENDM

	.MACRO __MULBRRU
	MUL  R@0,R@1
	MOVW R30,R0
	.ENDM

	.MACRO __MULBRR0
	MULS R@0,R@1
	.ENDM

	.MACRO __MULBRRU0
	MUL  R@0,R@1
	.ENDM

	.MACRO __MULBNWRU
	LDI  R26,@2
	MUL  R26,R@0
	MOVW R30,R0
	MUL  R26,R@1
	ADD  R31,R0
	.ENDM

;NAME DEFINITIONS FOR GLOBAL VARIABLES ALLOCATED TO REGISTERS
	.DEF _hour=R3
	.DEF _minute=R5
	.DEF _second=R7
	.DEF __lcd_x=R10
	.DEF __lcd_y=R9
	.DEF __lcd_maxx=R12

	.CSEG
	.ORG 0x00

;INTERRUPT VECTORS
	JMP  __RESET
	JMP  0x00
	JMP  0x00
	JMP  0x00
	JMP  0x00
	JMP  0x00
	JMP  0x00
	JMP  0x00
	JMP  0x00
	JMP  0x00
	JMP  0x00
	JMP  0x00
	JMP  0x00
	JMP  0x00
	JMP  0x00
	JMP  0x00
	JMP  0x00
	JMP  _timer1_compa_isr
	JMP  0x00
	JMP  0x00
	JMP  0x00
	JMP  0x00
	JMP  0x00
	JMP  0x00
	JMP  0x00
	JMP  0x00
	JMP  0x00
	JMP  0x00
	JMP  0x00
	JMP  0x00
	JMP  0x00
	JMP  0x00
	JMP  0x00
	JMP  0x00
	JMP  0x00
	JMP  0x00
	JMP  0x00
	JMP  0x00
	JMP  0x00
	JMP  0x00
	JMP  0x00
	JMP  0x00
	JMP  0x00
	JMP  0x00
	JMP  0x00
	JMP  0x00
	JMP  0x00
	JMP  0x00
	JMP  0x00
	JMP  0x00
	JMP  0x00
	JMP  0x00
	JMP  0x00
	JMP  0x00
	JMP  0x00
	JMP  0x00
	JMP  0x00

_0x14:
	.DB  0x10,0x0,0x0,0x0,0x0,0x0
_0x0:
	.DB  0x43,0x4C,0x4F,0x43,0x4B,0x3A,0x0
_0x2000003:
	.DB  0x80,0xC0
_0x202005F:
	.DB  0x1
_0x2020000:
	.DB  0x2D,0x4E,0x41,0x4E,0x0

__GLOBAL_INI_TBL:
	.DW  0x07
	.DW  _0x6
	.DW  _0x0*2

	.DW  0x06
	.DW  0x03
	.DW  _0x14*2

	.DW  0x02
	.DW  __base_y_G100
	.DW  _0x2000003*2

	.DW  0x01
	.DW  __seed_G101
	.DW  _0x202005F*2

_0xFFFFFFFF:
	.DW  0

__RESET:
	CLI
	CLR  R30
	OUT  EECR,R30

;INTERRUPT VECTORS ARE PLACED
;AT THE START OF FLASH
	LDI  R31,1
	OUT  MCUCR,R31
	OUT  MCUCR,R30
	STS  XMCRA,R30
	STS  XMCRB,R30

;DISABLE WATCHDOG
	LDI  R31,0x18
	WDR
	IN   R26,MCUSR
	CBR  R26,8
	OUT  MCUSR,R26
	STS  WDTCSR,R31
	STS  WDTCSR,R30

;CLEAR R2-R14
	LDI  R24,(14-2)+1
	LDI  R26,2
	CLR  R27
__CLEAR_REG:
	ST   X+,R30
	DEC  R24
	BRNE __CLEAR_REG

;CLEAR SRAM
	LDI  R24,LOW(0x2000)
	LDI  R25,HIGH(0x2000)
	LDI  R26,LOW(0x200)
	LDI  R27,HIGH(0x200)
__CLEAR_SRAM:
	ST   X+,R30
	SBIW R24,1
	BRNE __CLEAR_SRAM

;GLOBAL VARIABLES INITIALIZATION
	LDI  R30,LOW(__GLOBAL_INI_TBL*2)
	LDI  R31,HIGH(__GLOBAL_INI_TBL*2)
__GLOBAL_INI_NEXT:
	LPM  R24,Z+
	LPM  R25,Z+
	SBIW R24,0
	BREQ __GLOBAL_INI_END
	LPM  R26,Z+
	LPM  R27,Z+
	LPM  R0,Z+
	LPM  R1,Z+
	MOVW R22,R30
	MOVW R30,R0
__GLOBAL_INI_LOOP:
	LPM  R0,Z+
	ST   X+,R0
	SBIW R24,1
	BRNE __GLOBAL_INI_LOOP
	MOVW R30,R22
	RJMP __GLOBAL_INI_NEXT
__GLOBAL_INI_END:

	OUT  RAMPZ,R24

;GPIOR0 INITIALIZATION
	LDI  R30,0x00
	OUT  GPIOR0,R30

;STACK POINTER INITIALIZATION
	LDI  R30,LOW(0x21FF)
	OUT  SPL,R30
	LDI  R30,HIGH(0x21FF)
	OUT  SPH,R30

;DATA STACK POINTER INITIALIZATION
	LDI  R28,LOW(0xA00)
	LDI  R29,HIGH(0xA00)

	JMP  _main

	.ESEG
	.ORG 0

	.DSEG
	.ORG 0xA00

	.CSEG
;/*****************************************************
;This program was produced by the
;CodeWizardAVR V2.04.4a Advanced
;Automatic Program Generator
;© Copyright 1998-2009 Pavel Haiduc, HP InfoTech s.r.l.
;http://www.hpinfotech.com
;
;Project :
;Version :
;Date    : 11/3/2018
;Author  : NeVaDa
;Company :
;Comments:
;
;
;Chip type               : ATmega1280
;Program type            : Application
;AVR Core Clock frequency: 11.052000 MHz
;Memory model            : Small
;External RAM size       : 0
;Data Stack size         : 2048
;*****************************************************/
;
;#include <mega1280.h>
	#ifndef __SLEEP_DEFINED__
	#define __SLEEP_DEFINED__
	.EQU __se_bit=0x01
	.EQU __sm_mask=0x0E
	.EQU __sm_powerdown=0x04
	.EQU __sm_powersave=0x06
	.EQU __sm_standby=0x0C
	.EQU __sm_ext_standby=0x0E
	.EQU __sm_adc_noise_red=0x02
	.SET power_ctrl_reg=smcr
	#endif
;
;// Alphanumeric LCD Module functions
;#asm
   .equ __lcd_port=0x02 ;PORTA
; 0000 001D #endasm
;#include <lcd.h>
;#include <stdlib.h>
;
;unsigned int hour = 16; unsigned int minute = 0; unsigned int second = 0;
;unsigned char hour_c[10], minute_c[10], second_c[10];
;
;// Timer1 output compare A interrupt service routine
;interrupt [TIM1_COMPA] void timer1_compa_isr(void)
; 0000 0026 {

	.CSEG
_timer1_compa_isr:
	ST   -Y,R0
	ST   -Y,R1
	ST   -Y,R15
	ST   -Y,R22
	ST   -Y,R23
	ST   -Y,R24
	ST   -Y,R25
	ST   -Y,R26
	ST   -Y,R27
	ST   -Y,R30
	ST   -Y,R31
	IN   R30,SREG
	ST   -Y,R30
; 0000 0027     second += 1;
	LDI  R30,LOW(1)
	LDI  R31,HIGH(1)
	__ADDWRR 7,8,30,31
; 0000 0028     if(second == 60) {
	LDI  R30,LOW(60)
	LDI  R31,HIGH(60)
	CP   R30,R7
	CPC  R31,R8
	BRNE _0x3
; 0000 0029         second = 0;
	CLR  R7
	CLR  R8
; 0000 002A         minute += 1;
	LDI  R30,LOW(1)
	LDI  R31,HIGH(1)
	__ADDWRR 5,6,30,31
; 0000 002B         if(minute == 60) {
	LDI  R30,LOW(60)
	LDI  R31,HIGH(60)
	CP   R30,R5
	CPC  R31,R6
	BRNE _0x4
; 0000 002C             minute = 0;
	CLR  R5
	CLR  R6
; 0000 002D             hour += 1;
	LDI  R30,LOW(1)
	LDI  R31,HIGH(1)
	__ADDWRR 3,4,30,31
; 0000 002E             if(hour == 24) {
	LDI  R30,LOW(24)
	LDI  R31,HIGH(24)
	CP   R30,R3
	CPC  R31,R4
	BRNE _0x5
; 0000 002F                 hour = 0;
	CLR  R3
	CLR  R4
; 0000 0030             }
; 0000 0031         }
_0x5:
; 0000 0032     }
_0x4:
; 0000 0033     lcd_clear();
_0x3:
	CALL _lcd_clear
; 0000 0034     lcd_gotoxy(5,0);
	LDI  R30,LOW(5)
	ST   -Y,R30
	LDI  R30,LOW(0)
	ST   -Y,R30
	CALL _lcd_gotoxy
; 0000 0035     lcd_puts("CLOCK:");
	__POINTW1MN _0x6,0
	CALL SUBOPT_0x0
; 0000 0036     itoa(second, second_c);
	ST   -Y,R8
	ST   -Y,R7
	LDI  R30,LOW(_second_c)
	LDI  R31,HIGH(_second_c)
	CALL SUBOPT_0x1
; 0000 0037     itoa(minute, minute_c);
	ST   -Y,R6
	ST   -Y,R5
	LDI  R30,LOW(_minute_c)
	LDI  R31,HIGH(_minute_c)
	CALL SUBOPT_0x1
; 0000 0038     itoa(hour, hour_c);
	ST   -Y,R4
	ST   -Y,R3
	LDI  R30,LOW(_hour_c)
	LDI  R31,HIGH(_hour_c)
	CALL SUBOPT_0x1
; 0000 0039     lcd_gotoxy(4,1);
	LDI  R30,LOW(4)
	ST   -Y,R30
	LDI  R30,LOW(1)
	ST   -Y,R30
	CALL _lcd_gotoxy
; 0000 003A     if(hour < 10){
	LDI  R30,LOW(10)
	LDI  R31,HIGH(10)
	CP   R3,R30
	CPC  R4,R31
	BRSH _0x7
; 0000 003B         lcd_putchar('0');
	CALL SUBOPT_0x2
; 0000 003C         //lcd_gotoxy(1, 0);
; 0000 003D         lcd_puts(hour_c);
; 0000 003E     }
; 0000 003F     else {
_0x7:
; 0000 0040         lcd_puts(hour_c);
_0x11:
	LDI  R30,LOW(_hour_c)
	LDI  R31,HIGH(_hour_c)
	CALL SUBOPT_0x0
; 0000 0041     }
; 0000 0042     lcd_putchar(':');
	CALL SUBOPT_0x3
; 0000 0043     if(minute < 10){
	CP   R5,R30
	CPC  R6,R31
	BRSH _0x9
; 0000 0044         lcd_putchar('0');
	CALL SUBOPT_0x2
; 0000 0045         //lcd_gotoxy(1, 0);
; 0000 0046         lcd_puts(minute_c);
; 0000 0047     }
; 0000 0048     else {
_0x9:
; 0000 0049         lcd_puts(minute_c);
_0x12:
	LDI  R30,LOW(_minute_c)
	LDI  R31,HIGH(_minute_c)
	CALL SUBOPT_0x0
; 0000 004A     }
; 0000 004B     lcd_putchar(':');
	CALL SUBOPT_0x3
; 0000 004C     if(second < 10){
	CP   R7,R30
	CPC  R8,R31
	BRSH _0xB
; 0000 004D         lcd_putchar('0');
	CALL SUBOPT_0x2
; 0000 004E         //lcd_gotoxy(1, 0);
; 0000 004F         lcd_puts(second_c);
; 0000 0050     }
; 0000 0051     else {
_0xB:
; 0000 0052         lcd_puts(second_c);
_0x13:
	LDI  R30,LOW(_second_c)
	LDI  R31,HIGH(_second_c)
	CALL SUBOPT_0x0
; 0000 0053     }
; 0000 0054 }
	LD   R30,Y+
	OUT  SREG,R30
	LD   R31,Y+
	LD   R30,Y+
	LD   R27,Y+
	LD   R26,Y+
	LD   R25,Y+
	LD   R24,Y+
	LD   R23,Y+
	LD   R22,Y+
	LD   R15,Y+
	LD   R1,Y+
	LD   R0,Y+
	RETI

	.DSEG
_0x6:
	.BYTE 0x7
;
;// Declare your global variables here
;
;void main(void)
; 0000 0059 {

	.CSEG
_main:
; 0000 005A // Declare your local variables here
; 0000 005B 
; 0000 005C // Crystal Oscillator division factor: 1
; 0000 005D #pragma optsize-
; 0000 005E CLKPR=0x80;
	LDI  R30,LOW(128)
	STS  97,R30
; 0000 005F CLKPR=0x00;
	LDI  R30,LOW(0)
	STS  97,R30
; 0000 0060 #ifdef _OPTIMIZE_SIZE_
; 0000 0061 #pragma optsize+
; 0000 0062 #endif
; 0000 0063 
; 0000 0064 // Input/Output Ports initialization
; 0000 0065 // Port A initialization
; 0000 0066 // Func7=In Func6=In Func5=In Func4=In Func3=In Func2=In Func1=In Func0=In
; 0000 0067 // State7=T State6=T State5=T State4=T State3=T State2=T State1=T State0=T
; 0000 0068 PORTA=0x00;
	OUT  0x2,R30
; 0000 0069 DDRA=0x00;
	OUT  0x1,R30
; 0000 006A 
; 0000 006B // Port B initialization
; 0000 006C // Func7=In Func6=In Func5=In Func4=In Func3=In Func2=In Func1=In Func0=In
; 0000 006D // State7=T State6=T State5=T State4=T State3=T State2=T State1=T State0=T
; 0000 006E PORTB=0x00;
	OUT  0x5,R30
; 0000 006F DDRB=0x00;
	OUT  0x4,R30
; 0000 0070 
; 0000 0071 // Port C initialization
; 0000 0072 // Func7=In Func6=In Func5=In Func4=In Func3=In Func2=In Func1=In Func0=In
; 0000 0073 // State7=T State6=T State5=T State4=T State3=T State2=T State1=T State0=T
; 0000 0074 PORTC=0x00;
	OUT  0x8,R30
; 0000 0075 DDRC=0x00;
	OUT  0x7,R30
; 0000 0076 
; 0000 0077 // Port D initialization
; 0000 0078 // Func7=In Func6=In Func5=In Func4=In Func3=In Func2=In Func1=In Func0=In
; 0000 0079 // State7=T State6=T State5=T State4=T State3=T State2=T State1=T State0=T
; 0000 007A PORTD=0x00;
	OUT  0xB,R30
; 0000 007B DDRD=0x00;
	OUT  0xA,R30
; 0000 007C 
; 0000 007D // Port E initialization
; 0000 007E // Func7=In Func6=In Func5=In Func4=In Func3=In Func2=In Func1=In Func0=In
; 0000 007F // State7=T State6=T State5=T State4=T State3=T State2=T State1=T State0=T
; 0000 0080 PORTE=0x00;
	OUT  0xE,R30
; 0000 0081 DDRE=0x00;
	OUT  0xD,R30
; 0000 0082 
; 0000 0083 // Port F initialization
; 0000 0084 // Func7=In Func6=In Func5=In Func4=In Func3=In Func2=In Func1=In Func0=In
; 0000 0085 // State7=T State6=T State5=T State4=T State3=T State2=T State1=T State0=T
; 0000 0086 PORTF=0x00;
	OUT  0x11,R30
; 0000 0087 DDRF=0x00;
	OUT  0x10,R30
; 0000 0088 
; 0000 0089 // Port G initialization
; 0000 008A // Func5=In Func4=In Func3=In Func2=In Func1=In Func0=In
; 0000 008B // State5=T State4=T State3=T State2=T State1=T State0=T
; 0000 008C PORTG=0x00;
	OUT  0x14,R30
; 0000 008D DDRG=0x00;
	OUT  0x13,R30
; 0000 008E 
; 0000 008F // Port H initialization
; 0000 0090 // Func7=In Func6=In Func5=In Func4=In Func3=In Func2=In Func1=In Func0=In
; 0000 0091 // State7=T State6=T State5=T State4=T State3=T State2=T State1=T State0=T
; 0000 0092 PORTH=0x00;
	STS  258,R30
; 0000 0093 DDRH=0x00;
	STS  257,R30
; 0000 0094 
; 0000 0095 // Port J initialization
; 0000 0096 // Func7=In Func6=In Func5=In Func4=In Func3=In Func2=In Func1=In Func0=In
; 0000 0097 // State7=T State6=T State5=T State4=T State3=T State2=T State1=T State0=T
; 0000 0098 PORTJ=0x00;
	STS  261,R30
; 0000 0099 DDRJ=0x00;
	STS  260,R30
; 0000 009A 
; 0000 009B // Port K initialization
; 0000 009C // Func7=In Func6=In Func5=In Func4=In Func3=In Func2=In Func1=In Func0=In
; 0000 009D // State7=T State6=T State5=T State4=T State3=T State2=T State1=T State0=T
; 0000 009E PORTK=0x00;
	STS  264,R30
; 0000 009F DDRK=0x00;
	STS  263,R30
; 0000 00A0 
; 0000 00A1 // Port L initialization
; 0000 00A2 // Func7=In Func6=In Func5=In Func4=In Func3=In Func2=In Func1=In Func0=In
; 0000 00A3 // State7=T State6=T State5=T State4=T State3=T State2=T State1=T State0=T
; 0000 00A4 PORTL=0x00;
	STS  267,R30
; 0000 00A5 DDRL=0x00;
	STS  266,R30
; 0000 00A6 
; 0000 00A7 // Timer/Counter 0 initialization
; 0000 00A8 // Clock source: System Clock
; 0000 00A9 // Clock value: Timer 0 Stopped
; 0000 00AA // Mode: Normal top=FFh
; 0000 00AB // OC0A output: Disconnected
; 0000 00AC // OC0B output: Disconnected
; 0000 00AD TCCR0A=0x00;
	OUT  0x24,R30
; 0000 00AE TCCR0B=0x00;
	OUT  0x25,R30
; 0000 00AF TCNT0=0x00;
	OUT  0x26,R30
; 0000 00B0 OCR0A=0x00;
	OUT  0x27,R30
; 0000 00B1 OCR0B=0x00;
	OUT  0x28,R30
; 0000 00B2 
; 0000 00B3 // Timer/Counter 1 initialization
; 0000 00B4 // Clock source: System Clock
; 0000 00B5 // Clock value: 10.793 kHz
; 0000 00B6 // Mode: CTC top=OCR1A
; 0000 00B7 // OC1A output: Discon.
; 0000 00B8 // OC1B output: Discon.
; 0000 00B9 // OC1C output: Discon.
; 0000 00BA // Noise Canceler: Off
; 0000 00BB // Input Capture on Falling Edge
; 0000 00BC // Timer1 Overflow Interrupt: Off
; 0000 00BD // Input Capture Interrupt: Off
; 0000 00BE // Compare A Match Interrupt: On
; 0000 00BF // Compare B Match Interrupt: Off
; 0000 00C0 // Compare C Match Interrupt: Off
; 0000 00C1 TCCR1A=0x00;
	STS  128,R30
; 0000 00C2 TCCR1B=0x0D;
	LDI  R30,LOW(13)
	STS  129,R30
; 0000 00C3 TCNT1H=0x00;
	LDI  R30,LOW(0)
	STS  133,R30
; 0000 00C4 TCNT1L=0x00;
	STS  132,R30
; 0000 00C5 ICR1H=0x00;
	STS  135,R30
; 0000 00C6 ICR1L=0x00;
	STS  134,R30
; 0000 00C7 OCR1AH=0x2A;
	LDI  R30,LOW(42)
	STS  137,R30
; 0000 00C8 OCR1AL=0x30;
	LDI  R30,LOW(48)
	STS  136,R30
; 0000 00C9 OCR1BH=0x00;
	LDI  R30,LOW(0)
	STS  139,R30
; 0000 00CA OCR1BL=0x00;
	STS  138,R30
; 0000 00CB OCR1CH=0x00;
	STS  141,R30
; 0000 00CC OCR1CL=0x00;
	STS  140,R30
; 0000 00CD 
; 0000 00CE // Timer/Counter 2 initialization
; 0000 00CF // Clock source: System Clock
; 0000 00D0 // Clock value: Timer2 Stopped
; 0000 00D1 // Mode: Normal top=FFh
; 0000 00D2 // OC2A output: Disconnected
; 0000 00D3 // OC2B output: Disconnected
; 0000 00D4 ASSR=0x00;
	STS  182,R30
; 0000 00D5 TCCR2A=0x00;
	STS  176,R30
; 0000 00D6 TCCR2B=0x00;
	STS  177,R30
; 0000 00D7 TCNT2=0x00;
	STS  178,R30
; 0000 00D8 OCR2A=0x00;
	STS  179,R30
; 0000 00D9 OCR2B=0x00;
	STS  180,R30
; 0000 00DA 
; 0000 00DB // Timer/Counter 3 initialization
; 0000 00DC // Clock source: System Clock
; 0000 00DD // Clock value: Timer3 Stopped
; 0000 00DE // Mode: Normal top=FFFFh
; 0000 00DF // OC3A output: Discon.
; 0000 00E0 // OC3B output: Discon.
; 0000 00E1 // OC3C output: Discon.
; 0000 00E2 // Noise Canceler: Off
; 0000 00E3 // Input Capture on Falling Edge
; 0000 00E4 // Timer3 Overflow Interrupt: Off
; 0000 00E5 // Input Capture Interrupt: Off
; 0000 00E6 // Compare A Match Interrupt: Off
; 0000 00E7 // Compare B Match Interrupt: Off
; 0000 00E8 // Compare C Match Interrupt: Off
; 0000 00E9 TCCR3A=0x00;
	STS  144,R30
; 0000 00EA TCCR3B=0x00;
	STS  145,R30
; 0000 00EB TCNT3H=0x00;
	STS  149,R30
; 0000 00EC TCNT3L=0x00;
	STS  148,R30
; 0000 00ED ICR3H=0x00;
	STS  151,R30
; 0000 00EE ICR3L=0x00;
	STS  150,R30
; 0000 00EF OCR3AH=0x00;
	STS  153,R30
; 0000 00F0 OCR3AL=0x00;
	STS  152,R30
; 0000 00F1 OCR3BH=0x00;
	STS  155,R30
; 0000 00F2 OCR3BL=0x00;
	STS  154,R30
; 0000 00F3 OCR3CH=0x00;
	STS  157,R30
; 0000 00F4 OCR3CL=0x00;
	STS  156,R30
; 0000 00F5 
; 0000 00F6 // Timer/Counter 4 initialization
; 0000 00F7 // Clock source: System Clock
; 0000 00F8 // Clock value: Timer4 Stopped
; 0000 00F9 // Mode: Normal top=FFFFh
; 0000 00FA // OC4A output: Discon.
; 0000 00FB // OC4B output: Discon.
; 0000 00FC // OC4C output: Discon.
; 0000 00FD // Noise Canceler: Off
; 0000 00FE // Input Capture on Falling Edge
; 0000 00FF // Timer4 Overflow Interrupt: Off
; 0000 0100 // Input Capture Interrupt: Off
; 0000 0101 // Compare A Match Interrupt: Off
; 0000 0102 // Compare B Match Interrupt: Off
; 0000 0103 // Compare C Match Interrupt: Off
; 0000 0104 TCCR4A=0x00;
	STS  160,R30
; 0000 0105 TCCR4B=0x00;
	STS  161,R30
; 0000 0106 TCNT4H=0x00;
	STS  165,R30
; 0000 0107 TCNT4L=0x00;
	STS  164,R30
; 0000 0108 ICR4H=0x00;
	STS  167,R30
; 0000 0109 ICR4L=0x00;
	STS  166,R30
; 0000 010A OCR4AH=0x00;
	STS  169,R30
; 0000 010B OCR4AL=0x00;
	STS  168,R30
; 0000 010C OCR4BH=0x00;
	STS  171,R30
; 0000 010D OCR4BL=0x00;
	STS  170,R30
; 0000 010E OCR4CH=0x00;
	STS  173,R30
; 0000 010F OCR4CL=0x00;
	STS  172,R30
; 0000 0110 
; 0000 0111 // Timer/Counter 5 initialization
; 0000 0112 // Clock source: System Clock
; 0000 0113 // Clock value: Timer5 Stopped
; 0000 0114 // Mode: Normal top=FFFFh
; 0000 0115 // OC5A output: Discon.
; 0000 0116 // OC5B output: Discon.
; 0000 0117 // OC5C output: Discon.
; 0000 0118 // Noise Canceler: Off
; 0000 0119 // Input Capture on Falling Edge
; 0000 011A // Timer5 Overflow Interrupt: Off
; 0000 011B // Input Capture Interrupt: Off
; 0000 011C // Compare A Match Interrupt: Off
; 0000 011D // Compare B Match Interrupt: Off
; 0000 011E // Compare C Match Interrupt: Off
; 0000 011F TCCR5A=0x00;
	STS  288,R30
; 0000 0120 TCCR5B=0x00;
	STS  289,R30
; 0000 0121 TCNT5H=0x00;
	STS  293,R30
; 0000 0122 TCNT5L=0x00;
	STS  292,R30
; 0000 0123 ICR5H=0x00;
	STS  295,R30
; 0000 0124 ICR5L=0x00;
	STS  294,R30
; 0000 0125 OCR5AH=0x00;
	STS  297,R30
; 0000 0126 OCR5AL=0x00;
	STS  296,R30
; 0000 0127 OCR5BH=0x00;
	STS  299,R30
; 0000 0128 OCR5BL=0x00;
	STS  298,R30
; 0000 0129 OCR5CH=0x00;
	STS  301,R30
; 0000 012A OCR5CL=0x00;
	STS  300,R30
; 0000 012B 
; 0000 012C // External Interrupt(s) initialization
; 0000 012D // INT0: Off
; 0000 012E // INT1: Off
; 0000 012F // INT2: Off
; 0000 0130 // INT3: Off
; 0000 0131 // INT4: Off
; 0000 0132 // INT5: Off
; 0000 0133 // INT6: Off
; 0000 0134 // INT7: Off
; 0000 0135 EICRA=0x00;
	STS  105,R30
; 0000 0136 EICRB=0x00;
	STS  106,R30
; 0000 0137 EIMSK=0x00;
	OUT  0x1D,R30
; 0000 0138 // PCINT0 interrupt: Off
; 0000 0139 // PCINT1 interrupt: Off
; 0000 013A // PCINT2 interrupt: Off
; 0000 013B // PCINT3 interrupt: Off
; 0000 013C // PCINT4 interrupt: Off
; 0000 013D // PCINT5 interrupt: Off
; 0000 013E // PCINT6 interrupt: Off
; 0000 013F // PCINT7 interrupt: Off
; 0000 0140 // PCINT8 interrupt: Off
; 0000 0141 // PCINT9 interrupt: Off
; 0000 0142 // PCINT10 interrupt: Off
; 0000 0143 // PCINT11 interrupt: Off
; 0000 0144 // PCINT12 interrupt: Off
; 0000 0145 // PCINT13 interrupt: Off
; 0000 0146 // PCINT14 interrupt: Off
; 0000 0147 // PCINT15 interrupt: Off
; 0000 0148 // PCINT16 interrupt: Off
; 0000 0149 // PCINT17 interrupt: Off
; 0000 014A // PCINT18 interrupt: Off
; 0000 014B // PCINT19 interrupt: Off
; 0000 014C // PCINT20 interrupt: Off
; 0000 014D // PCINT21 interrupt: Off
; 0000 014E // PCINT22 interrupt: Off
; 0000 014F // PCINT23 interrupt: Off
; 0000 0150 PCMSK0=0x00;
	STS  107,R30
; 0000 0151 PCMSK1=0x00;
	STS  108,R30
; 0000 0152 PCMSK2=0x00;
	STS  109,R30
; 0000 0153 PCICR=0x00;
	STS  104,R30
; 0000 0154 
; 0000 0155 // Timer/Counter 0 Interrupt(s) initialization
; 0000 0156 TIMSK0=0x00;
	STS  110,R30
; 0000 0157 // Timer/Counter 1 Interrupt(s) initialization
; 0000 0158 TIMSK1=0x02;
	LDI  R30,LOW(2)
	STS  111,R30
; 0000 0159 // Timer/Counter 2 Interrupt(s) initialization
; 0000 015A TIMSK2=0x00;
	LDI  R30,LOW(0)
	STS  112,R30
; 0000 015B // Timer/Counter 3 Interrupt(s) initialization
; 0000 015C TIMSK3=0x00;
	STS  113,R30
; 0000 015D // Timer/Counter 4 Interrupt(s) initialization
; 0000 015E TIMSK4=0x00;
	STS  114,R30
; 0000 015F // Timer/Counter 5 Interrupt(s) initialization
; 0000 0160 TIMSK5=0x00;
	STS  115,R30
; 0000 0161 
; 0000 0162 // Analog Comparator initialization
; 0000 0163 // Analog Comparator: Off
; 0000 0164 // Analog Comparator Input Capture by Timer/Counter 1: Off
; 0000 0165 ACSR=0x80;
	LDI  R30,LOW(128)
	OUT  0x30,R30
; 0000 0166 ADCSRB=0x00;
	LDI  R30,LOW(0)
	STS  123,R30
; 0000 0167 
; 0000 0168 // LCD module initialization
; 0000 0169 lcd_init(16);
	LDI  R30,LOW(16)
	ST   -Y,R30
	CALL _lcd_init
; 0000 016A 
; 0000 016B // Global enable interrupts
; 0000 016C #asm("sei")
	sei
; 0000 016D   lcd_clear();
	CALL _lcd_clear
; 0000 016E while (1)
_0xD:
; 0000 016F       {
; 0000 0170       };
	RJMP _0xD
; 0000 0171 }
_0x10:
	RJMP _0x10
    .equ __lcd_direction=__lcd_port-1
    .equ __lcd_pin=__lcd_port-2
    .equ __lcd_rs=0
    .equ __lcd_rd=1
    .equ __lcd_enable=2
    .equ __lcd_busy_flag=7

	.DSEG

	.CSEG
__lcd_delay_G100:
    ldi   r31,15
__lcd_delay0:
    dec   r31
    brne  __lcd_delay0
	RET
__lcd_ready:
    in    r26,__lcd_direction
    andi  r26,0xf                 ;set as input
    out   __lcd_direction,r26
    sbi   __lcd_port,__lcd_rd     ;RD=1
    cbi   __lcd_port,__lcd_rs     ;RS=0
__lcd_busy:
	RCALL __lcd_delay_G100
    sbi   __lcd_port,__lcd_enable ;EN=1
	RCALL __lcd_delay_G100
    in    r26,__lcd_pin
    cbi   __lcd_port,__lcd_enable ;EN=0
	RCALL __lcd_delay_G100
    sbi   __lcd_port,__lcd_enable ;EN=1
	RCALL __lcd_delay_G100
    cbi   __lcd_port,__lcd_enable ;EN=0
    sbrc  r26,__lcd_busy_flag
    rjmp  __lcd_busy
	RET
__lcd_write_nibble_G100:
    andi  r26,0xf0
    or    r26,r27
    out   __lcd_port,r26          ;write
    sbi   __lcd_port,__lcd_enable ;EN=1
	CALL __lcd_delay_G100
    cbi   __lcd_port,__lcd_enable ;EN=0
	CALL __lcd_delay_G100
	RET
__lcd_write_data:
    cbi  __lcd_port,__lcd_rd 	  ;RD=0
    in    r26,__lcd_direction
    ori   r26,0xf0 | (1<<__lcd_rs) | (1<<__lcd_rd) | (1<<__lcd_enable) ;set as output
    out   __lcd_direction,r26
    in    r27,__lcd_port
    andi  r27,0xf
    ld    r26,y
	RCALL __lcd_write_nibble_G100
    ld    r26,y
    swap  r26
	RCALL __lcd_write_nibble_G100
    sbi   __lcd_port,__lcd_rd     ;RD=1
	JMP  _0x20A0001
__lcd_read_nibble_G100:
    sbi   __lcd_port,__lcd_enable ;EN=1
	CALL __lcd_delay_G100
    in    r30,__lcd_pin           ;read
    cbi   __lcd_port,__lcd_enable ;EN=0
	CALL __lcd_delay_G100
    andi  r30,0xf0
	RET
_lcd_read_byte0_G100:
	CALL __lcd_delay_G100
	RCALL __lcd_read_nibble_G100
    mov   r26,r30
	RCALL __lcd_read_nibble_G100
    cbi   __lcd_port,__lcd_rd     ;RD=0
    swap  r30
    or    r30,r26
	RET
_lcd_gotoxy:
	CALL __lcd_ready
	LD   R30,Y
	LDI  R31,0
	SUBI R30,LOW(-__base_y_G100)
	SBCI R31,HIGH(-__base_y_G100)
	LD   R30,Z
	LDD  R26,Y+1
	ADD  R30,R26
	ST   -Y,R30
	CALL __lcd_write_data
	LDD  R10,Y+1
	LDD  R9,Y+0
	ADIW R28,2
	RET
_lcd_clear:
	CALL __lcd_ready
	LDI  R30,LOW(2)
	ST   -Y,R30
	CALL __lcd_write_data
	CALL __lcd_ready
	LDI  R30,LOW(12)
	ST   -Y,R30
	CALL __lcd_write_data
	CALL __lcd_ready
	LDI  R30,LOW(1)
	ST   -Y,R30
	CALL __lcd_write_data
	LDI  R30,LOW(0)
	MOV  R9,R30
	MOV  R10,R30
	RET
_lcd_putchar:
    push r30
    push r31
    ld   r26,y
    set
    cpi  r26,10
    breq __lcd_putchar1
    clt
	CP   R10,R12
	BRLO _0x2000004
	__lcd_putchar1:
	INC  R9
	LDI  R30,LOW(0)
	ST   -Y,R30
	ST   -Y,R9
	RCALL _lcd_gotoxy
	brts __lcd_putchar0
_0x2000004:
	INC  R10
    rcall __lcd_ready
    sbi  __lcd_port,__lcd_rs ;RS=1
    ld   r26,y
    st   -y,r26
    rcall __lcd_write_data
__lcd_putchar0:
    pop  r31
    pop  r30
	JMP  _0x20A0001
_lcd_puts:
	ST   -Y,R17
_0x2000005:
	LDD  R26,Y+1
	LDD  R27,Y+1+1
	LD   R30,X+
	STD  Y+1,R26
	STD  Y+1+1,R27
	MOV  R17,R30
	CPI  R30,0
	BREQ _0x2000007
	ST   -Y,R17
	RCALL _lcd_putchar
	RJMP _0x2000005
_0x2000007:
	LDD  R17,Y+0
	ADIW R28,3
	RET
__long_delay_G100:
    clr   r26
    clr   r27
__long_delay0:
    sbiw  r26,1         ;2 cycles
    brne  __long_delay0 ;2 cycles
	RET
__lcd_init_write_G100:
    cbi  __lcd_port,__lcd_rd 	  ;RD=0
    in    r26,__lcd_direction
    ori   r26,0xf7                ;set as output
    out   __lcd_direction,r26
    in    r27,__lcd_port
    andi  r27,0xf
    ld    r26,y
	CALL __lcd_write_nibble_G100
    sbi   __lcd_port,__lcd_rd     ;RD=1
	RJMP _0x20A0001
_lcd_init:
    cbi   __lcd_port,__lcd_enable ;EN=0
    cbi   __lcd_port,__lcd_rs     ;RS=0
	LDD  R12,Y+0
	LD   R30,Y
	SUBI R30,-LOW(128)
	__PUTB1MN __base_y_G100,2
	LD   R30,Y
	SUBI R30,-LOW(192)
	__PUTB1MN __base_y_G100,3
	CALL SUBOPT_0x4
	CALL SUBOPT_0x4
	CALL SUBOPT_0x4
	RCALL __long_delay_G100
	LDI  R30,LOW(32)
	ST   -Y,R30
	RCALL __lcd_init_write_G100
	RCALL __long_delay_G100
	LDI  R30,LOW(40)
	CALL SUBOPT_0x5
	LDI  R30,LOW(4)
	CALL SUBOPT_0x5
	LDI  R30,LOW(133)
	CALL SUBOPT_0x5
    in    r26,__lcd_direction
    andi  r26,0xf                 ;set as input
    out   __lcd_direction,r26
    sbi   __lcd_port,__lcd_rd     ;RD=1
	CALL _lcd_read_byte0_G100
	CPI  R30,LOW(0x5)
	BREQ _0x200000B
	LDI  R30,LOW(0)
	RJMP _0x20A0001
_0x200000B:
	CALL __lcd_ready
	LDI  R30,LOW(6)
	ST   -Y,R30
	CALL __lcd_write_data
	CALL _lcd_clear
	LDI  R30,LOW(1)
_0x20A0001:
	ADIW R28,1
	RET

	.CSEG
_itoa:
    ld   r26,y+
    ld   r27,y+
    ld   r30,y+
    ld   r31,y+
    adiw r30,0
    brpl __itoa0
    com  r30
    com  r31
    adiw r30,1
    ldi  r22,'-'
    st   x+,r22
__itoa0:
    clt
    ldi  r24,low(10000)
    ldi  r25,high(10000)
    rcall __itoa1
    ldi  r24,low(1000)
    ldi  r25,high(1000)
    rcall __itoa1
    ldi  r24,100
    clr  r25
    rcall __itoa1
    ldi  r24,10
    rcall __itoa1
    mov  r22,r30
    rcall __itoa5
    clr  r22
    st   x,r22
    ret

__itoa1:
    clr	 r22
__itoa2:
    cp   r30,r24
    cpc  r31,r25
    brlo __itoa3
    inc  r22
    sub  r30,r24
    sbc  r31,r25
    brne __itoa2
__itoa3:
    tst  r22
    brne __itoa4
    brts __itoa5
    ret
__itoa4:
    set
__itoa5:
    subi r22,-0x30
    st   x+,r22
    ret

	.DSEG

	.CSEG

	.CSEG

	.CSEG

	.CSEG

	.DSEG
_hour_c:
	.BYTE 0xA
_minute_c:
	.BYTE 0xA
_second_c:
	.BYTE 0xA
__base_y_G100:
	.BYTE 0x4
__seed_G101:
	.BYTE 0x4

	.CSEG
;OPTIMIZER ADDED SUBROUTINE, CALLED 4 TIMES, CODE SIZE REDUCTION:3 WORDS
SUBOPT_0x0:
	ST   -Y,R31
	ST   -Y,R30
	JMP  _lcd_puts

;OPTIMIZER ADDED SUBROUTINE, CALLED 3 TIMES, CODE SIZE REDUCTION:1 WORDS
SUBOPT_0x1:
	ST   -Y,R31
	ST   -Y,R30
	JMP  _itoa

;OPTIMIZER ADDED SUBROUTINE, CALLED 3 TIMES, CODE SIZE REDUCTION:1 WORDS
SUBOPT_0x2:
	LDI  R30,LOW(48)
	ST   -Y,R30
	JMP  _lcd_putchar

;OPTIMIZER ADDED SUBROUTINE, CALLED 2 TIMES, CODE SIZE REDUCTION:1 WORDS
SUBOPT_0x3:
	LDI  R30,LOW(58)
	ST   -Y,R30
	CALL _lcd_putchar
	LDI  R30,LOW(10)
	LDI  R31,HIGH(10)
	RET

;OPTIMIZER ADDED SUBROUTINE, CALLED 3 TIMES, CODE SIZE REDUCTION:5 WORDS
SUBOPT_0x4:
	CALL __long_delay_G100
	LDI  R30,LOW(48)
	ST   -Y,R30
	JMP  __lcd_init_write_G100

;OPTIMIZER ADDED SUBROUTINE, CALLED 3 TIMES, CODE SIZE REDUCTION:3 WORDS
SUBOPT_0x5:
	ST   -Y,R30
	CALL __lcd_write_data
	JMP  __long_delay_G100


	.CSEG
;END OF CODE MARKER
__END_OF_CODE:
